; Function Attrs: mustprogress nounwind uwtable
define internal noundef nonnull ptr @_ZN6evmone8advanced12_GLOBAL__N_12opIXadL_ZNS0_5instr4implILNS_6OpcodeE66EXadL_ZNS_5instr4core9timestampENS_8StackTopERNS_14ExecutionStateEEEEEvRNS0_22AdvancedExecutionStateEEEEEPKNS0_11InstructionESF_SC_(ptr noundef readnone captures(ret: address, provenance) %0, ptr noundef nonnull align 8 captures(none) dereferenceable(564) %1) #4 {
  %3 = alloca %struct.evmc_tx_context, align 8
  %4 = getelementptr inbounds nuw i8, ptr %1, i64 552
  %.sroa.0.0.copyload.i = load ptr, ptr %4, align 8, !tbaa !57
  %5 = getelementptr inbounds nuw i8, ptr %1, i64 264
  %6 = load i64, ptr %5, align 8, !tbaa !145
  %7 = icmp eq i64 %6, 0
  br i1 %7, label %8, label %_ZN6evmone8advanced5instr4implILNS_6OpcodeE66EXadL_ZNS_5instr4core9timestampENS_8StackTopERNS_14ExecutionStateEEEEEvRNS0_22AdvancedExecutionStateE.exit, !prof !146

8:                                                ; preds = %2
  %9 = getelementptr inbounds nuw i8, ptr %1, i64 184
  call void @llvm.lifetime.start.p0(ptr nonnull %3) #26
  %10 = getelementptr inbounds nuw i8, ptr %1, i64 48
  %11 = load ptr, ptr %10, align 8, !tbaa !137, !noalias !182
  %12 = getelementptr inbounds nuw i8, ptr %11, i64 72
  %13 = load ptr, ptr %12, align 8, !tbaa !150, !noalias !182
  %14 = getelementptr inbounds nuw i8, ptr %1, i64 56
  %15 = load ptr, ptr %14, align 8, !tbaa !140, !noalias !182
  call void %13(ptr dead_on_unwind nonnull writable sret(%struct.evmc_tx_context) align 8 %3, ptr noundef %15) #26
  call void @llvm.memcpy.p0.p0.i64(ptr noundef nonnull align 8 dereferenceable(256) %9, ptr noundef nonnull align 8 dereferenceable(256) %3, i64 256, i1 false), !tbaa.struct !151
  call void @llvm.lifetime.end.p0(ptr nonnull %3) #26
  %.pre.i.i = load i64, ptr %5, align 8, !tbaa !185
  br label %_ZN6evmone8advanced5instr4implILNS_6OpcodeE66EXadL_ZNS_5instr4core9timestampENS_8StackTopERNS_14ExecutionStateEEEEEvRNS0_22AdvancedExecutionStateE.exit

_ZN6evmone8advanced5instr4implILNS_6OpcodeE66EXadL_ZNS_5instr4core9timestampENS_8StackTopERNS_14ExecutionStateEEEEEvRNS0_22AdvancedExecutionStateE.exit: ; preds = %2, %8
  %16 = phi i64 [ %6, %2 ], [ %.pre.i.i, %8 ]
  store i64 %16, ptr %.sroa.0.0.copyload.i, align 8
  %.sroa.4.0..sroa_idx.i.i = getelementptr inbounds nuw i8, ptr %.sroa.0.0.copyload.i, i64 8
  call void @llvm.memset.p0.i64(ptr noundef nonnull align 8 dereferenceable(24) %.sroa.4.0..sroa_idx.i.i, i8 0, i64 24, i1 false)
  %17 = load ptr, ptr %4, align 8, !tbaa !67
  %18 = getelementptr inbounds nuw i8, ptr %17, i64 32
  call void @llvm.assume(i1 true) [ "align"(ptr %18, i64 32) ]
  %19 = ptrtoint ptr %18 to i64
  store i64 %19, ptr %4, align 8, !tbaa !57
  %20 = getelementptr inbounds nuw i8, ptr %0, i64 16
  ret ptr %20
}